(lp0
(Vsecurity
p1
I838
tp2
a(Vnofiltro3
p3
I509
tp4
a(Vcloud computing
p5
I459
tp6
a(Vdata mining
p7
I453
tp8
a(Vontology
p9
I423
tp10
a(Vscopus
p11
I416
tp12
a(Vpr:r
p13
I383
tp14
a(Vhumans
p15
I343
tp16
a(Vinternet
p17
I335
tp18
a(Vweb services
p19
I319
tp20
a(Valgorithms
p21
I318
tp22
a(Vsoftware engineering
p23
I290
tp24
a(Vauthentication
p25
I282
tp26
a(Vsemantic web
p27
I282
tp28
a(Vlista_filtrada
p29
I281
tp30
a(Vxxx
p31
I280
tp32
a(Vprivacy
p33
I268
tp34
a(Vsimulation
p35
I235
tp36
a(Vscheduling
p37
I229
tp38
a(Vclustering
p39
I226
tp40
a.