(dp0
S'test_account'
p1
(imendeley.mendeley_client
MendeleyAccount
p2
(dp3
S'access_token'
p4
ccopy_reg
_reconstructor
p5
(cmendeley.oauth2
Token
p6
c__builtin__
object
p7
Ntp8
Rp9
(dp10
S'secret'
p11
Vd99848687da9780fc34effcee0e2b2c1
p12
sS'key'
p13
V5061dd516d6c1ed1c4f75936fed881df0529e52d8
p14
sbsbs.