(lp0
(I1
VArts and Literature
p1
Varts-and-literature
p2
tp3
a(I2
VAstronomy / Astrophysics / Space Science
p4
Vastronomy-astrophysics-space-science
p5
tp6
a(I3
VBiological Sciences
p7
Vbiological-sciences
p8
tp9
a(I4
VBusiness Administration
p10
Vbusiness-administration
p11
tp12
a(I5
VChemistry
p13
Vchemistry
p14
tp15
a(I6
VComputer and Information Science
p16
Vcomputer-and-information-science
p17
tp18
a(I7
VEarth Sciences
p19
Vearth-sciences
p20
tp21
a(I8
VEconomics
p22
Veconomics
p23
tp24
a(I9
VEducation
p25
Veducation
p26
tp27
a(I10
VElectrical and Electronic Engineering
p28
Velectrical-and-electronic-engineering
p29
tp30
a(I11
VEngineering
p31
Vengineering
p32
tp33
a(I12
VEnvironmental Sciences
p34
Venvironmental-sciences
p35
tp36
a(I13
VHumanities
p37
Vhumanities
p38
tp39
a(I14
VLaw
p40
Vlaw
p41
tp42
a(I15
VLinguistics
p43
Vlinguistics
p44
tp45
a(I16
VManagement Science / Operations Research
p46
Vmanagement-science-operations-research
p47
tp48
a(I17
VMaterials Science
p49
Vmaterials-science
p50
tp51
a(I18
VMathematics
p52
Vmathematics
p53
tp54
a(I19
VMedicine
p55
Vmedicine
p56
tp57
a(I20
VPhilosophy
p58
Vphilosophy
p59
tp60
a(I21
VPhysics
p61
Vphysics
p62
tp63
a(I22
VPsychology
p64
Vpsychology
p65
tp66
a(I23
VSocial Sciences
p67
Vsocial-sciences
p68
tp69
a(I24
VSports and Recreation
p70
Vsports-and-recreation
p71
tp72
a(I25
VDesign
p73
Vdesign
p74
tp75
a.